target datalayout = "e-m:e-p270:32:32-p271:32:32-p272:64:64-i64:64-i128:128-f80:128-n8:16:32:64-S128"
target triple = "x86_64-pc-linux-gnu"

%struct.tls_buffer_st = type { ptr, i64, i64, i64, i64, i32, i32 }
%struct.tls_rl_record_st = type { i32, i32, i64, i64, i64, ptr, ptr, ptr, i16, [8 x i8] }
%struct.ossl_record_layer_st = type { ptr, ptr, i32, i32, i32, i32, i32, ptr, i16, ptr, ptr, ptr, i64, i32, [33 x %struct.tls_buffer_st], i64, i64, %struct.tls_buffer_st, [32 x %struct.tls_rl_record_st], i64, i64, i64, i32, ptr, i64, [8 x i8], i32, i32, i64, i32, ptr, ptr, i64, ptr, ptr, i32, i32, i32, i64, i64, i64, [64 x i8], i32, i32, i32, ptr, ptr, i32, i32, i64, ptr, ptr, %struct.dtls_bitmap_st, %struct.dtls_bitmap_st, i32, ptr, ptr, ptr, ptr, ptr, i64, ptr }
%struct.dtls_bitmap_st = type { i64, [8 x i8] }

; Function Attrs: nounwind uwtable
define i64 @tls_app_data_pending(ptr noundef %0) #0 {
  %2 = alloca i64, align 8
  %3 = alloca ptr, align 8
  %4 = alloca i64, align 8
  %5 = alloca i64, align 8
  %6 = alloca i32, align 4
  store ptr %0, ptr %3, align 8, !tbaa !16
  call void @llvm.lifetime.start.p0(i64 8, ptr %4) #10
  call void @llvm.lifetime.start.p0(i64 8, ptr %5) #10
  store i64 0, ptr %5, align 8, !tbaa !38
  %7 = load ptr, ptr %3, align 8, !tbaa !16
  %8 = getelementptr inbounds nuw %struct.ossl_record_layer_st, ptr %7, i32 0, i32 20
  %9 = load i64, ptr %8, align 8, !tbaa !94
  store i64 %9, ptr %4, align 8, !tbaa !38
  br label %10

10:                                               ; preds = %35, %1
  %11 = load i64, ptr %4, align 8, !tbaa !38
  %12 = load ptr, ptr %3, align 8, !tbaa !16
  %13 = getelementptr inbounds nuw %struct.ossl_record_layer_st, ptr %12, i32 0, i32 19
  %14 = load i64, ptr %13, align 8, !tbaa !93
  %15 = icmp ult i64 %11, %14
  br i1 %15, label %16, label %38

16:                                               ; preds = %10
  %17 = load ptr, ptr %3, align 8, !tbaa !16
  %18 = getelementptr inbounds nuw %struct.ossl_record_layer_st, ptr %17, i32 0, i32 18
  %19 = load i64, ptr %4, align 8, !tbaa !38
  %20 = getelementptr inbounds nuw [32 x %struct.tls_rl_record_st], ptr %18, i64 0, i64 %19
  %21 = getelementptr inbounds nuw %struct.tls_rl_record_st, ptr %20, i32 0, i32 1
  %22 = load i32, ptr %21, align 4, !tbaa !79
  %23 = icmp ne i32 %22, 23
  br i1 %23, label %24, label %26

24:                                               ; preds = %16
  %25 = load i64, ptr %5, align 8, !tbaa !38
  store i64 %25, ptr %2, align 8
  store i32 1, ptr %6, align 4
  br label %40

26:                                               ; preds = %16
  %27 = load ptr, ptr %3, align 8, !tbaa !16
  %28 = getelementptr inbounds nuw %struct.ossl_record_layer_st, ptr %27, i32 0, i32 18
  %29 = load i64, ptr %4, align 8, !tbaa !38
  %30 = getelementptr inbounds nuw [32 x %struct.tls_rl_record_st], ptr %28, i64 0, i64 %29
  %31 = getelementptr inbounds nuw %struct.tls_rl_record_st, ptr %30, i32 0, i32 2
  %32 = load i64, ptr %31, align 8, !tbaa !82
  %33 = load i64, ptr %5, align 8, !tbaa !38
  %34 = add i64 %33, %32
  store i64 %34, ptr %5, align 8, !tbaa !38
  br label %35

35:                                               ; preds = %26
  %36 = load i64, ptr %4, align 8, !tbaa !38
  %37 = add i64 %36, 1
  store i64 %37, ptr %4, align 8, !tbaa !38
  br label %10, !llvm.loop !153

38:                                               ; preds = %10
  %39 = load i64, ptr %5, align 8, !tbaa !38
  store i64 %39, ptr %2, align 8
  store i32 1, ptr %6, align 4
  br label %40

40:                                               ; preds = %38, %24
  call void @llvm.lifetime.end.p0(i64 8, ptr %5) #10
  call void @llvm.lifetime.end.p0(i64 8, ptr %4) #10
  %41 = load i64, ptr %2, align 8
  ret i64 %41
}