; Function Attrs: nofree norecurse nosync nounwind memory(argmem: read) uwtable
define i64 @tls_app_data_pending(ptr noundef readonly captures(none) %0) #10 {
  %2 = getelementptr inbounds nuw i8, ptr %0, i64 4056
  %3 = load i64, ptr %2, align 8, !tbaa !95
  %4 = getelementptr inbounds nuw i8, ptr %0, i64 1744
  %5 = getelementptr inbounds nuw i8, ptr %0, i64 4048
  %6 = load i64, ptr %5, align 8, !tbaa !88
  %7 = icmp ult i64 %3, %6
  br i1 %7, label %.lr.ph, label %._crit_edge

.lr.ph:                                           ; preds = %1, %11
  %.014 = phi i64 [ %14, %11 ], [ 0, %1 ]
  %.01113 = phi i64 [ %15, %11 ], [ %3, %1 ]
  %8 = getelementptr inbounds nuw [32 x %struct.tls_rl_record_st], ptr %4, i64 0, i64 %.01113
  %9 = getelementptr inbounds nuw i8, ptr %8, i64 4
  %10 = load i32, ptr %9, align 4, !tbaa !62
  %.not = icmp eq i32 %10, 23
  br i1 %.not, label %11, label %._crit_edge

11:                                               ; preds = %.lr.ph
  %12 = getelementptr inbounds nuw i8, ptr %8, i64 8
  %13 = load i64, ptr %12, align 8, !tbaa !65
  %14 = add i64 %13, %.014
  %15 = add i64 %.01113, 1
  %exitcond.not = icmp eq i64 %15, %6
  br i1 %exitcond.not, label %._crit_edge, label %.lr.ph, !llvm.loop !124

._crit_edge:                                      ; preds = %.lr.ph, %11, %1
  %.0.lcssa = phi i64 [ 0, %1 ], [ %14, %11 ], [ %.014, %.lr.ph ]
  ret i64 %.0.lcssa
}